target datalayout = "e-m:e-p270:32:32-p271:32:32-p272:64:64-i64:64-i128:128-f80:128-n8:16:32:64-S128"
target triple = "x86_64-pc-linux-gnu"

%struct.mbedtls_mpi = type { ptr, i16, i16 }
%union.mbedtls_ssl_user_data_t = type { i64 }
%struct.mbedtls_ssl_context = type { ptr, i32, i32, i32, i32, i32, ptr, ptr, ptr, ptr, ptr, ptr, ptr, ptr, ptr, ptr, ptr, ptr, ptr, ptr, ptr, ptr, ptr, ptr, ptr, ptr, ptr, ptr, ptr, ptr, ptr, ptr, ptr, i32, i64, i64, i16, i64, i64, i64, i64, i32, i32, i8, i8, i32, i8, ptr, ptr, ptr, ptr, ptr, ptr, ptr, i32, i64, i64, [8 x i8], i16, ptr, ptr, ptr, i64, i32, i64, [12 x i8], [12 x i8], [32 x i8], i8, i8, ptr, ptr, %union.mbedtls_ssl_user_data_t }
%struct.mbedtls_md_context_t = type { ptr, ptr, ptr }
%struct.mbedtls_ssl_handshake_params = type { i8, i8, i8, i8, i8, i32, i8, i8, i8, i8, ptr, ptr, ptr, ptr, ptr, i8, i8, i8, i8, i16, i16, [20 x i16], ptr, ptr, %struct.mbedtls_dhm_context, %struct.mbedtls_ecdh_context, i16, i64, i32, i8, [1024 x i8], i64, ptr, ptr, i64, i16, ptr, ptr, ptr, ptr, %struct.anon, ptr, i16, i8, i32, i32, i32, ptr, ptr, ptr, i32, ptr, [8 x i8], i8, [32 x i8], i8, i16, %struct.mbedtls_md_context_t, %struct.mbedtls_md_context_t, i16, i8, %union.anon.1, [64 x i8], [1076 x i8], i64, i32, i32, i8, ptr, ptr, %union.anon.4, %struct.mbedtls_ssl_tls13_handshake_secrets, ptr, i64, ptr }
%struct.mbedtls_dhm_context = type { %struct.mbedtls_mpi, %struct.mbedtls_mpi, %struct.mbedtls_mpi, %struct.mbedtls_mpi, %struct.mbedtls_mpi, %struct.mbedtls_mpi, %struct.mbedtls_mpi, %struct.mbedtls_mpi, %struct.mbedtls_mpi, %struct.mbedtls_mpi }
%struct.mbedtls_ecdh_context = type { i8, i32, i32, %union.anon }
%union.anon = type { %struct.mbedtls_ecdh_context_mbed }
%struct.mbedtls_ecdh_context_mbed = type { %struct.mbedtls_ecp_group, %struct.mbedtls_mpi, %struct.mbedtls_ecp_point, %struct.mbedtls_ecp_point, %struct.mbedtls_mpi }
%struct.mbedtls_ecp_group = type { i32, %struct.mbedtls_mpi, %struct.mbedtls_mpi, %struct.mbedtls_mpi, %struct.mbedtls_ecp_point, %struct.mbedtls_mpi, i64, i64, i32, ptr, ptr, ptr, ptr, ptr, i64 }
%struct.mbedtls_ecp_point = type { %struct.mbedtls_mpi, %struct.mbedtls_mpi, %struct.mbedtls_mpi }
%struct.anon = type { i64, i8, [4 x %struct.mbedtls_ssl_hs_buffer], %struct.anon.0 }
%struct.mbedtls_ssl_hs_buffer = type { i8, ptr, i64 }
%struct.anon.0 = type { ptr, i64, i32 }
%union.anon.1 = type { %struct.anon.2 }
%struct.anon.2 = type { i8, [64 x i8], i64 }
%union.anon.4 = type { [64 x i8] }
%struct.mbedtls_ssl_tls13_handshake_secrets = type { [64 x i8], [64 x i8] }

; Function Attrs: nounwind uwtable
define hidden i32 @mbedtls_ssl_add_hs_hdr_to_checksum(ptr noundef %0, i32 noundef %1, i64 noundef %2) #0 {
  %4 = alloca ptr, align 8
  %5 = alloca i32, align 4
  %6 = alloca i64, align 8
  %7 = alloca [4 x i8], align 1
  store ptr %0, ptr %4, align 8, !tbaa !27
  store i32 %1, ptr %5, align 4, !tbaa !10
  store i64 %2, ptr %6, align 8, !tbaa !8
  call void @llvm.lifetime.start.p0(i64 4, ptr %7) #11
  %8 = load i32, ptr %5, align 4, !tbaa !10
  %9 = and i32 %8, 255
  %10 = trunc i32 %9 to i8
  %11 = getelementptr inbounds [4 x i8], ptr %7, i64 0, i64 0
  store i8 %10, ptr %11, align 1, !tbaa !87
  %12 = load i64, ptr %6, align 8, !tbaa !8
  %13 = lshr i64 %12, 16
  %14 = and i64 %13, 255
  %15 = trunc i64 %14 to i8
  %16 = getelementptr inbounds [4 x i8], ptr %7, i64 0, i64 1
  store i8 %15, ptr %16, align 1, !tbaa !87
  %17 = load i64, ptr %6, align 8, !tbaa !8
  %18 = lshr i64 %17, 8
  %19 = and i64 %18, 255
  %20 = trunc i64 %19 to i8
  %21 = getelementptr inbounds [4 x i8], ptr %7, i64 0, i64 2
  store i8 %20, ptr %21, align 1, !tbaa !87
  %22 = load i64, ptr %6, align 8, !tbaa !8
  %23 = and i64 %22, 255
  %24 = trunc i64 %23 to i8
  %25 = getelementptr inbounds [4 x i8], ptr %7, i64 0, i64 3
  store i8 %24, ptr %25, align 1, !tbaa !87
  %26 = load ptr, ptr %4, align 8, !tbaa !27
  %27 = getelementptr inbounds nuw %struct.mbedtls_ssl_context, ptr %26, i32 0, i32 16
  %28 = load ptr, ptr %27, align 8, !tbaa !78
  %29 = getelementptr inbounds nuw %struct.mbedtls_ssl_handshake_params, ptr %28, i32 0, i32 11
  %30 = load ptr, ptr %29, align 8, !tbaa !79
  %31 = load ptr, ptr %4, align 8, !tbaa !27
  %32 = getelementptr inbounds [4 x i8], ptr %7, i64 0, i64 0
  %33 = call i32 %30(ptr noundef %31, ptr noundef %32, i64 noundef 4)
  call void @llvm.lifetime.end.p0(i64 4, ptr %7) #11
  ret i32 %33
}