; Function Attrs: nounwind uwtable
define hidden i32 @mbedtls_ssl_add_hs_hdr_to_checksum(ptr noundef %0, i32 noundef %1, i64 noundef %2) local_unnamed_addr #1 {
  %4 = alloca [4 x i8], align 1
  call void @llvm.lifetime.start.p0(i64 4, ptr nonnull %4) #26
  %5 = trunc i32 %1 to i8
  store i8 %5, ptr %4, align 1, !tbaa !80
  %6 = lshr i64 %2, 16
  %7 = trunc i64 %6 to i8
  %8 = getelementptr inbounds nuw i8, ptr %4, i64 1
  store i8 %7, ptr %8, align 1, !tbaa !80
  %9 = lshr i64 %2, 8
  %10 = trunc i64 %9 to i8
  %11 = getelementptr inbounds nuw i8, ptr %4, i64 2
  store i8 %10, ptr %11, align 1, !tbaa !80
  %12 = trunc i64 %2 to i8
  %13 = getelementptr inbounds nuw i8, ptr %4, i64 3
  store i8 %12, ptr %13, align 1, !tbaa !80
  %14 = getelementptr inbounds nuw i8, ptr %0, i64 112
  %15 = load ptr, ptr %14, align 8, !tbaa !70
  %16 = getelementptr inbounds nuw i8, ptr %15, i64 24
  %17 = load ptr, ptr %16, align 8, !tbaa !71
  %18 = call i32 %17(ptr noundef %0, ptr noundef nonnull %4, i64 noundef 4) #26
  call void @llvm.lifetime.end.p0(i64 4, ptr nonnull %4) #26
  ret i32 %18
}